#include <math.h>
#include <stdio.h>
#include <stdlib.h>
#include <string.h>
#include <iostream>
using namespace std;

int main()
{
    int n, num[90]={0}, a[20001]={0}, i;
    cin >> n;
    cin >> a[1];
    num[a[1]-10]++;
    cout << a[1];
    for (i=2;i<=n;i++)
    {
        cin >> a[i];
        num[a[i]-10]++;
        if (num[a[i]-10]==1) cout << " " << a[i];
    }
    return 0;
} 
